target datalayout = "e-m:e-p270:32:32-p271:32:32-p272:64:64-i64:64-i128:128-f80:128-n8:16:32:64-S128"
target triple = "x86_64-pc-linux-gnu"

; Function Attrs: nounwind uwtable
define void @right_mult_with_vector_f(ptr noundef %0, i32 noundef %1, ptr noundef %2, ptr noundef %3) #0 {
  %5 = alloca ptr, align 8
  %6 = alloca i32, align 4
  %7 = alloca ptr, align 8
  %8 = alloca ptr, align 8
  %9 = alloca i32, align 4
  %10 = alloca i32, align 4
  %11 = alloca double, align 8
  store ptr %0, ptr %5, align 8, !tbaa !36
  store i32 %1, ptr %6, align 4, !tbaa !8
  store ptr %2, ptr %7, align 8, !tbaa !10
  store ptr %3, ptr %8, align 8, !tbaa !10
  call void @llvm.lifetime.start.p0(i64 4, ptr %9) #8
  call void @llvm.lifetime.start.p0(i64 4, ptr %10) #8
  call void @llvm.lifetime.start.p0(i64 8, ptr %11) #8
  store i32 0, ptr %9, align 4, !tbaa !8
  br label %12

12:                                               ; preds = %48, %4
  %13 = load i32, ptr %9, align 4, !tbaa !8
  %14 = load i32, ptr %6, align 4, !tbaa !8
  %15 = icmp slt i32 %13, %14
  br i1 %15, label %16, label %51

16:                                               ; preds = %12
  store double 0.000000e+00, ptr %11, align 8, !tbaa !12
  store i32 0, ptr %10, align 4, !tbaa !8
  br label %17

17:                                               ; preds = %39, %16
  %18 = load i32, ptr %10, align 4, !tbaa !8
  %19 = load i32, ptr %6, align 4, !tbaa !8
  %20 = icmp slt i32 %18, %19
  br i1 %20, label %21, label %42

21:                                               ; preds = %17
  %22 = load ptr, ptr %5, align 8, !tbaa !36
  %23 = load i32, ptr %9, align 4, !tbaa !8
  %24 = sext i32 %23 to i64
  %25 = getelementptr inbounds ptr, ptr %22, i64 %24
  %26 = load ptr, ptr %25, align 8, !tbaa !40
  %27 = load i32, ptr %10, align 4, !tbaa !8
  %28 = sext i32 %27 to i64
  %29 = getelementptr inbounds float, ptr %26, i64 %28
  %30 = load float, ptr %29, align 4, !tbaa !43
  %31 = fpext float %30 to double
  %32 = load ptr, ptr %7, align 8, !tbaa !10
  %33 = load i32, ptr %10, align 4, !tbaa !8
  %34 = sext i32 %33 to i64
  %35 = getelementptr inbounds double, ptr %32, i64 %34
  %36 = load double, ptr %35, align 8, !tbaa !12
  %37 = load double, ptr %11, align 8, !tbaa !12
  %38 = call double @llvm.fmuladd.f64(double %31, double %36, double %37)
  store double %38, ptr %11, align 8, !tbaa !12
  br label %39

39:                                               ; preds = %21
  %40 = load i32, ptr %10, align 4, !tbaa !8
  %41 = add nsw i32 %40, 1
  store i32 %41, ptr %10, align 4, !tbaa !8
  br label %17, !llvm.loop !69

42:                                               ; preds = %17
  %43 = load double, ptr %11, align 8, !tbaa !12
  %44 = load ptr, ptr %8, align 8, !tbaa !10
  %45 = load i32, ptr %9, align 4, !tbaa !8
  %46 = sext i32 %45 to i64
  %47 = getelementptr inbounds double, ptr %44, i64 %46
  store double %43, ptr %47, align 8, !tbaa !12
  br label %48

48:                                               ; preds = %42
  %49 = load i32, ptr %9, align 4, !tbaa !8
  %50 = add nsw i32 %49, 1
  store i32 %50, ptr %9, align 4, !tbaa !8
  br label %12, !llvm.loop !70

51:                                               ; preds = %12
  call void @llvm.lifetime.end.p0(i64 8, ptr %11) #8
  call void @llvm.lifetime.end.p0(i64 4, ptr %10) #8
  call void @llvm.lifetime.end.p0(i64 4, ptr %9) #8
  ret void
}