; Function Attrs: nofree norecurse nosync nounwind memory(read, argmem: readwrite, inaccessiblemem: none) uwtable
define void @right_mult_with_vector_f(ptr noundef readonly captures(none) %0, i32 noundef %1, ptr noundef readonly captures(none) %2, ptr noundef writeonly captures(none) %3) local_unnamed_addr #5 {
  %5 = icmp sgt i32 %1, 0
  br i1 %5, label %.preheader.us.preheader, label %._crit_edge20

.preheader.us.preheader:                          ; preds = %4
  %wide.trip.count25 = zext nneg i32 %1 to i64
  br label %.preheader.us

.preheader.us:                                    ; preds = %.preheader.us.preheader, %._crit_edge.us
  %indvars.iv22 = phi i64 [ 0, %.preheader.us.preheader ], [ %indvars.iv.next23, %._crit_edge.us ]
  %6 = getelementptr inbounds nuw ptr, ptr %0, i64 %indvars.iv22
  %7 = load ptr, ptr %6, align 8, !tbaa !33
  br label %8

8:                                                ; preds = %.preheader.us, %8
  %indvars.iv = phi i64 [ 0, %.preheader.us ], [ %indvars.iv.next, %8 ]
  %.018.us = phi double [ 0.000000e+00, %.preheader.us ], [ %14, %8 ]
  %9 = getelementptr inbounds nuw float, ptr %7, i64 %indvars.iv
  %10 = load float, ptr %9, align 4, !tbaa !35
  %11 = fpext float %10 to double
  %12 = getelementptr inbounds nuw double, ptr %2, i64 %indvars.iv
  %13 = load double, ptr %12, align 8, !tbaa !10
  %14 = tail call double @llvm.fmuladd.f64(double %11, double %13, double %.018.us)
  %indvars.iv.next = add nuw nsw i64 %indvars.iv, 1
  %exitcond.not = icmp eq i64 %indvars.iv.next, %wide.trip.count25
  br i1 %exitcond.not, label %._crit_edge.us, label %8, !llvm.loop !62

._crit_edge.us:                                   ; preds = %8
  %15 = getelementptr inbounds nuw double, ptr %3, i64 %indvars.iv22
  store double %14, ptr %15, align 8, !tbaa !10
  %indvars.iv.next23 = add nuw nsw i64 %indvars.iv22, 1
  %exitcond26.not = icmp eq i64 %indvars.iv.next23, %wide.trip.count25
  br i1 %exitcond26.not, label %._crit_edge20, label %.preheader.us, !llvm.loop !63

._crit_edge20:                                    ; preds = %._crit_edge.us, %4
  ret void
}